; Function Attrs: null_pointer_is_valid sspstrong uwtable
define hidden i32 @mapi_dissect_struct_OpenMessage_recipients(ptr noundef %0, i32 noundef %1, ptr noundef %2, ptr noundef %3, ptr noundef %4, ptr noundef %5, i32 noundef %6, i32 %7) local_unnamed_addr #0 {
  %9 = alloca i16, align 2
  %10 = alloca i8, align 1
  %11 = getelementptr inbounds nuw i8, ptr %4, i64 26
  %12 = load i8, ptr %11, align 2, !range !9, !noundef !10
  store i8 1, ptr %11, align 2
  %.not = icmp eq ptr %3, null
  br i1 %.not, label %17, label %13

13:                                               ; preds = %8
  %14 = tail call ptr @proto_tree_add_item(ptr noundef nonnull %3, i32 noundef %6, ptr noundef %0, i32 noundef %1, i32 noundef -1, i32 noundef 0)
  %15 = load i32, ptr @ett_mapi_OpenMessage_recipients, align 4
  %16 = tail call ptr @proto_item_add_subtree(ptr noundef %14, i32 noundef %15)
  br label %17

17:                                               ; preds = %13, %8
  %.038 = phi ptr [ %16, %13 ], [ null, %8 ]
  %.0 = phi ptr [ %14, %13 ], [ null, %8 ]
  %18 = load i32, ptr @hf_mapi_OpenMessage_recipients_RecipClass, align 4
  call void @llvm.lifetime.start.p0(i64 1, ptr nonnull %10) #6
  store i8 0, ptr %10, align 1
  %19 = call i32 @dissect_ndr_uint8(ptr noundef %0, i32 noundef %1, ptr noundef %2, ptr noundef %.038, ptr noundef %4, ptr noundef %5, i32 noundef %18, ptr noundef nonnull %10)
  call void @llvm.lifetime.end.p0(i64 1, ptr nonnull %10) #6
  %20 = load i32, ptr @hf_mapi_OpenMessage_recipients_codepage, align 4
  call void @llvm.lifetime.start.p0(i64 2, ptr nonnull %9) #6
  store i16 0, ptr %9, align 2
  %21 = call i32 @dissect_ndr_uint16(ptr noundef %0, i32 noundef %19, ptr noundef %2, ptr noundef %.038, ptr noundef %4, ptr noundef %5, i32 noundef %20, ptr noundef nonnull %9)
  call void @llvm.lifetime.end.p0(i64 2, ptr nonnull %9) #6
  %22 = load i32, ptr @hf_mapi_OpenMessage_recipients_Reserved, align 4
  %23 = call i32 @PIDL_dissect_uint16(ptr noundef %0, i32 noundef %21, ptr noundef %2, ptr noundef %.038, ptr noundef %4, ptr noundef %5, i32 noundef %22, i32 noundef 0)
  %24 = load i32, ptr @hf_mapi_OpenMessage_recipients_RecipientRow, align 4
  %25 = call i32 @mapi_dissect_struct_RecipientRow(ptr noundef %0, i32 noundef %23, ptr noundef %2, ptr noundef %.038, ptr noundef %4, ptr noundef %5, i32 noundef %24, i32 poison)
  %26 = sub i32 %25, %1
  call void @proto_item_set_len(ptr noundef %.0, i32 noundef %26)
  store i8 %12, ptr %11, align 2
  ret i32 %25
}